target datalayout = "e-m:e-p270:32:32-p271:32:32-p272:64:64-i64:64-i128:128-f80:128-n8:16:32:64-S128"
target triple = "x86_64-pc-linux-gnu"

%struct.H5FA_dblock_t = type { %struct.H5C_cache_entry_t, ptr, ptr, ptr, ptr, i64, i64, i64, i64, i64, i64, i64 }
%struct.H5C_cache_entry_t = type { ptr, i64, i64, ptr, i8, ptr, i8, i8, i8, i8, i32, i8, i8, i8, i8, i8, i32, ptr, i32, i32, i32, i32, i32, i8, i8, ptr, ptr, ptr, ptr, ptr, ptr, i8, i32, i8, i64, ptr, i64, i64, i32, i8, i32, i32, i8, ptr, ptr, ptr }
%struct.H5FA_hdr_t = type { %struct.H5C_cache_entry_t, %struct.H5FA_create_t, i64, %struct.H5FA_stat_t, i64, i64, i64, ptr, i64, i8, i64, i64, ptr, i8, ptr, ptr }
%struct.H5FA_create_t = type { ptr, i8, i8, i64 }
%struct.H5FA_stat_t = type { i64, i64, i64 }

@H5FA_init_g = external global i8, align 1
@H5_libterm_g = external global i8, align 1
@.str.3 = private unnamed_addr constant [103 x i8] c"generated/home/dtcxzyw/WorkSpace/Projects/compilers/llvm-opt-benchmark/bench/hdf5/hdf5/src/H5FAcache.c\00", align 1
@H5E_FARRAY_g = external global i64, align 8
@H5E_BADVALUE_g = external global i64, align 8
@H5E_CANTUNDEPEND_g = external global i64, align 8
@.str.14 = private unnamed_addr constant [35 x i8] c"unknown action from metadata cache\00", align 1
@__func__.H5FA__cache_dblock_notify = private unnamed_addr constant [26 x i8] c"H5FA__cache_dblock_notify\00", align 1
@H5E_CANTDEPEND_g = external global i64, align 8
@.str.24 = private unnamed_addr constant [80 x i8] c"unable to create flush dependency between data block and header, address = %llu\00", align 1
@.str.25 = private unnamed_addr constant [35 x i8] c"unable to destroy flush dependency\00", align 1
@.str.26 = private unnamed_addr constant [82 x i8] c"unable to destroy flush dependency between data block and fixed array 'top' proxy\00", align 1

; Function Attrs: nounwind uwtable
define internal i32 @H5FA__cache_dblock_notify(i32 noundef %0, ptr noundef %1) #0 {
  %3 = alloca i32, align 4
  %4 = alloca ptr, align 8
  %5 = alloca ptr, align 8
  %6 = alloca i32, align 4
  %7 = alloca i8, align 1
  store i32 %0, ptr %3, align 4, !tbaa !22
  store ptr %1, ptr %4, align 8, !tbaa !3
  call void @llvm.lifetime.start.p0(i64 8, ptr %5) #7
  %8 = load ptr, ptr %4, align 8, !tbaa !3
  store ptr %8, ptr %5, align 8, !tbaa !71
  call void @llvm.lifetime.start.p0(i64 4, ptr %6) #7
  store i32 0, ptr %6, align 4, !tbaa !22
  call void @llvm.lifetime.start.p0(i64 1, ptr %7) #7
  store i8 0, ptr %7, align 1, !tbaa !11
  %9 = load i8, ptr @H5FA_init_g, align 1, !tbaa !11, !range !13, !noundef !14
  %10 = trunc i8 %9 to i1
  br i1 %10, label %15, label %11

11:                                               ; preds = %2
  %12 = load i8, ptr @H5_libterm_g, align 1, !tbaa !11, !range !13, !noundef !14
  %13 = trunc i8 %12 to i1
  %14 = xor i1 %13, true
  br label %15

15:                                               ; preds = %11, %2
  %16 = phi i1 [ true, %2 ], [ %14, %11 ]
  %17 = xor i1 %16, true
  %18 = xor i1 %17, true
  %19 = zext i1 %18 to i32
  %20 = sext i32 %19 to i64
  %21 = call i64 @llvm.expect.i64(i64 %20, i64 1)
  %22 = icmp ne i64 %21, 0
  br i1 %22, label %23, label %146

23:                                               ; preds = %15
  %24 = load ptr, ptr %5, align 8, !tbaa !71
  %25 = getelementptr inbounds nuw %struct.H5FA_dblock_t, ptr %24, i32 0, i32 3
  %26 = load ptr, ptr %25, align 8, !tbaa !50
  %27 = getelementptr inbounds nuw %struct.H5FA_hdr_t, ptr %26, i32 0, i32 13
  %28 = load i8, ptr %27, align 8, !tbaa !64, !range !13, !noundef !14
  %29 = trunc i8 %28 to i1
  br i1 %29, label %30, label %144

30:                                               ; preds = %23
  %31 = load i32, ptr %3, align 4, !tbaa !22
  switch i32 %31, label %124 [
    i32 0, label %32
    i32 1, label %32
    i32 2, label %62
    i32 4, label %62
    i32 5, label %62
    i32 6, label %62
    i32 7, label %62
    i32 8, label %62
    i32 9, label %62
    i32 3, label %63
  ]

32:                                               ; preds = %30, %30
  %33 = load ptr, ptr %5, align 8, !tbaa !71
  %34 = getelementptr inbounds nuw %struct.H5FA_dblock_t, ptr %33, i32 0, i32 3
  %35 = load ptr, ptr %34, align 8, !tbaa !50
  %36 = load ptr, ptr %5, align 8, !tbaa !71
  %37 = call i32 @H5FA__create_flush_depend(ptr noundef %35, ptr noundef %36)
  %38 = icmp slt i32 %37, 0
  br i1 %38, label %39, label %61

39:                                               ; preds = %32
  br label %40

40:                                               ; preds = %39
  br label %41

41:                                               ; preds = %40
  br label %42

42:                                               ; preds = %41
  %43 = load i64, ptr @H5E_FARRAY_g, align 8, !tbaa !19
  %44 = load i64, ptr @H5E_CANTDEPEND_g, align 8, !tbaa !19
  %45 = load ptr, ptr %5, align 8, !tbaa !71
  %46 = getelementptr inbounds nuw %struct.H5FA_dblock_t, ptr %45, i32 0, i32 5
  %47 = load i64, ptr %46, align 8, !tbaa !74
  %48 = call i32 (ptr, ptr, i32, i64, i64, ptr, ...) @H5E_printf_stack(ptr noundef @.str.3, ptr noundef @__func__.H5FA__cache_dblock_notify, i32 noundef 828, i64 noundef %43, i64 noundef %44, ptr noundef @.str.24, i64 noundef %47)
  br label %49

49:                                               ; preds = %42
  br label %50

50:                                               ; preds = %49
  store i8 1, ptr %7, align 1, !tbaa !11
  %51 = load i8, ptr %7, align 1, !tbaa !11, !range !13, !noundef !14
  %52 = trunc i8 %51 to i1
  %53 = zext i1 %52 to i8
  store i8 %53, ptr %7, align 1, !tbaa !11
  br label %54

54:                                               ; preds = %50
  br label %55

55:                                               ; preds = %54
  br label %56

56:                                               ; preds = %55
  store i32 -1, ptr %6, align 4, !tbaa !22
  br label %145

57:                                               ; No predecessors!
  br label %58

58:                                               ; preds = %57
  br label %59

59:                                               ; preds = %58
  br label %60

60:                                               ; preds = %59
  br label %61

61:                                               ; preds = %60, %32
  br label %143

62:                                               ; preds = %30, %30, %30, %30, %30, %30, %30
  br label %143

63:                                               ; preds = %30
  %64 = load ptr, ptr %5, align 8, !tbaa !71
  %65 = getelementptr inbounds nuw %struct.H5FA_dblock_t, ptr %64, i32 0, i32 3
  %66 = load ptr, ptr %65, align 8, !tbaa !50
  %67 = load ptr, ptr %5, align 8, !tbaa !71
  %68 = call i32 @H5FA__destroy_flush_depend(ptr noundef %66, ptr noundef %67)
  %69 = icmp slt i32 %68, 0
  br i1 %69, label %70, label %89

70:                                               ; preds = %63
  br label %71

71:                                               ; preds = %70
  br label %72

72:                                               ; preds = %71
  br label %73

73:                                               ; preds = %72
  %74 = load i64, ptr @H5E_FARRAY_g, align 8, !tbaa !19
  %75 = load i64, ptr @H5E_CANTUNDEPEND_g, align 8, !tbaa !19
  %76 = call i32 (ptr, ptr, i32, i64, i64, ptr, ...) @H5E_printf_stack(ptr noundef @.str.3, ptr noundef @__func__.H5FA__cache_dblock_notify, i32 noundef 843, i64 noundef %74, i64 noundef %75, ptr noundef @.str.25)
  br label %77

77:                                               ; preds = %73
  br label %78

78:                                               ; preds = %77
  store i8 1, ptr %7, align 1, !tbaa !11
  %79 = load i8, ptr %7, align 1, !tbaa !11, !range !13, !noundef !14
  %80 = trunc i8 %79 to i1
  %81 = zext i1 %80 to i8
  store i8 %81, ptr %7, align 1, !tbaa !11
  br label %82

82:                                               ; preds = %78
  br label %83

83:                                               ; preds = %82
  br label %84

84:                                               ; preds = %83
  store i32 -1, ptr %6, align 4, !tbaa !22
  br label %145

85:                                               ; No predecessors!
  br label %86

86:                                               ; preds = %85
  br label %87

87:                                               ; preds = %86
  br label %88

88:                                               ; preds = %87
  br label %89

89:                                               ; preds = %88, %63
  %90 = load ptr, ptr %5, align 8, !tbaa !71
  %91 = getelementptr inbounds nuw %struct.H5FA_dblock_t, ptr %90, i32 0, i32 4
  %92 = load ptr, ptr %91, align 8, !tbaa !82
  %93 = icmp ne ptr %92, null
  br i1 %93, label %94, label %123

94:                                               ; preds = %89
  %95 = load ptr, ptr %5, align 8, !tbaa !71
  %96 = getelementptr inbounds nuw %struct.H5FA_dblock_t, ptr %95, i32 0, i32 4
  %97 = load ptr, ptr %96, align 8, !tbaa !82
  %98 = load ptr, ptr %5, align 8, !tbaa !71
  %99 = call i32 @H5AC_proxy_entry_remove_child(ptr noundef %97, ptr noundef %98)
  %100 = icmp slt i32 %99, 0
  br i1 %100, label %101, label %120

101:                                              ; preds = %94
  br label %102

102:                                              ; preds = %101
  br label %103

103:                                              ; preds = %102
  br label %104

104:                                              ; preds = %103
  %105 = load i64, ptr @H5E_FARRAY_g, align 8, !tbaa !19
  %106 = load i64, ptr @H5E_CANTUNDEPEND_g, align 8, !tbaa !19
  %107 = call i32 (ptr, ptr, i32, i64, i64, ptr, ...) @H5E_printf_stack(ptr noundef @.str.3, ptr noundef @__func__.H5FA__cache_dblock_notify, i32 noundef 850, i64 noundef %105, i64 noundef %106, ptr noundef @.str.26)
  br label %108

108:                                              ; preds = %104
  br label %109

109:                                              ; preds = %108
  store i8 1, ptr %7, align 1, !tbaa !11
  %110 = load i8, ptr %7, align 1, !tbaa !11, !range !13, !noundef !14
  %111 = trunc i8 %110 to i1
  %112 = zext i1 %111 to i8
  store i8 %112, ptr %7, align 1, !tbaa !11
  br label %113

113:                                              ; preds = %109
  br label %114

114:                                              ; preds = %113
  br label %115

115:                                              ; preds = %114
  store i32 -1, ptr %6, align 4, !tbaa !22
  br label %145

116:                                              ; No predecessors!
  br label %117

117:                                              ; preds = %116
  br label %118

118:                                              ; preds = %117
  br label %119

119:                                              ; preds = %118
  br label %120

120:                                              ; preds = %119, %94
  %121 = load ptr, ptr %5, align 8, !tbaa !71
  %122 = getelementptr inbounds nuw %struct.H5FA_dblock_t, ptr %121, i32 0, i32 4
  store ptr null, ptr %122, align 8, !tbaa !82
  br label %123

123:                                              ; preds = %120, %89
  br label %143

124:                                              ; preds = %30
  br label %125

125:                                              ; preds = %124
  br label %126

126:                                              ; preds = %125
  br label %127

127:                                              ; preds = %126
  %128 = load i64, ptr @H5E_FARRAY_g, align 8, !tbaa !19
  %129 = load i64, ptr @H5E_BADVALUE_g, align 8, !tbaa !19
  %130 = call i32 (ptr, ptr, i32, i64, i64, ptr, ...) @H5E_printf_stack(ptr noundef @.str.3, ptr noundef @__func__.H5FA__cache_dblock_notify, i32 noundef 857, i64 noundef %128, i64 noundef %129, ptr noundef @.str.14)
  br label %131

131:                                              ; preds = %127
  br label %132

132:                                              ; preds = %131
  store i8 1, ptr %7, align 1, !tbaa !11
  %133 = load i8, ptr %7, align 1, !tbaa !11, !range !13, !noundef !14
  %134 = trunc i8 %133 to i1
  %135 = zext i1 %134 to i8
  store i8 %135, ptr %7, align 1, !tbaa !11
  br label %136

136:                                              ; preds = %132
  br label %137

137:                                              ; preds = %136
  br label %138

138:                                              ; preds = %137
  store i32 -1, ptr %6, align 4, !tbaa !22
  br label %145

139:                                              ; No predecessors!
  br label %140

140:                                              ; preds = %139
  br label %141

141:                                              ; preds = %140
  br label %142

142:                                              ; preds = %141
  br label %143

143:                                              ; preds = %142, %123, %62, %61
  br label %144

144:                                              ; preds = %143, %23
  br label %145

145:                                              ; preds = %144, %138, %115, %84, %56
  br label %146

146:                                              ; preds = %145, %15
  %147 = load i32, ptr %6, align 4, !tbaa !22
  call void @llvm.lifetime.end.p0(i64 1, ptr %7) #7
  call void @llvm.lifetime.end.p0(i64 4, ptr %6) #7
  call void @llvm.lifetime.end.p0(i64 8, ptr %5) #7
  ret i32 %147
}