; Function Attrs: nounwind uwtable
define internal range(i32 -1, 1) i32 @H5FA__cache_dblock_notify(i32 noundef %0, ptr noundef %1) #0 {
  %3 = load i8, ptr @H5FA_init_g, align 1, !tbaa !3, !range !7, !noundef !8
  %4 = trunc nuw i8 %3 to i1
  %5 = load i8, ptr @H5_libterm_g, align 1, !range !7
  %6 = trunc nuw i8 %5 to i1
  %7 = xor i1 %6, true
  %8 = select i1 %4, i1 true, i1 %7
  br i1 %8, label %9, label %47, !prof !9

9:                                                ; preds = %2
  %10 = getelementptr inbounds nuw i8, ptr %1, i64 264
  %11 = load ptr, ptr %10, align 8, !tbaa !67
  %12 = getelementptr inbounds nuw i8, ptr %11, i64 376
  %13 = load i8, ptr %12, align 8, !tbaa !51, !range !7, !noundef !8
  %14 = trunc nuw i8 %13 to i1
  br i1 %14, label %15, label %47

15:                                               ; preds = %9
  switch i32 %0, label %43 [
    i32 0, label %16
    i32 1, label %16
    i32 2, label %47
    i32 4, label %47
    i32 5, label %47
    i32 6, label %47
    i32 7, label %47
    i32 8, label %47
    i32 9, label %47
    i32 3, label %25
  ]

16:                                               ; preds = %15, %15
  %17 = tail call i32 @H5FA__create_flush_depend(ptr noundef nonnull %11, ptr noundef nonnull %1) #6
  %18 = icmp slt i32 %17, 0
  br i1 %18, label %19, label %47

19:                                               ; preds = %16
  %20 = load i64, ptr @H5E_FARRAY_g, align 8, !tbaa !15
  %21 = load i64, ptr @H5E_CANTDEPEND_g, align 8, !tbaa !15
  %22 = getelementptr inbounds nuw i8, ptr %1, i64 280
  %23 = load i64, ptr %22, align 8, !tbaa !58
  %24 = tail call i32 (ptr, ptr, i32, i64, i64, ptr, ...) @H5E_printf_stack(ptr noundef nonnull @.str.3, ptr noundef nonnull @__func__.H5FA__cache_dblock_notify, i32 noundef 828, i64 noundef %20, i64 noundef %21, ptr noundef nonnull @.str.24, i64 noundef %23) #6
  br label %47

25:                                               ; preds = %15
  %26 = tail call i32 @H5FA__destroy_flush_depend(ptr noundef nonnull %11, ptr noundef nonnull %1) #6
  %27 = icmp slt i32 %26, 0
  br i1 %27, label %28, label %32

28:                                               ; preds = %25
  %29 = load i64, ptr @H5E_FARRAY_g, align 8, !tbaa !15
  %30 = load i64, ptr @H5E_CANTUNDEPEND_g, align 8, !tbaa !15
  %31 = tail call i32 (ptr, ptr, i32, i64, i64, ptr, ...) @H5E_printf_stack(ptr noundef nonnull @.str.3, ptr noundef nonnull @__func__.H5FA__cache_dblock_notify, i32 noundef 843, i64 noundef %29, i64 noundef %30, ptr noundef nonnull @.str.25) #6
  br label %47

32:                                               ; preds = %25
  %33 = getelementptr inbounds nuw i8, ptr %1, i64 272
  %34 = load ptr, ptr %33, align 8, !tbaa !70
  %.not = icmp eq ptr %34, null
  br i1 %.not, label %47, label %35

35:                                               ; preds = %32
  %36 = tail call i32 @H5AC_proxy_entry_remove_child(ptr noundef nonnull %34, ptr noundef nonnull %1) #6
  %37 = icmp slt i32 %36, 0
  br i1 %37, label %38, label %42

38:                                               ; preds = %35
  %39 = load i64, ptr @H5E_FARRAY_g, align 8, !tbaa !15
  %40 = load i64, ptr @H5E_CANTUNDEPEND_g, align 8, !tbaa !15
  %41 = tail call i32 (ptr, ptr, i32, i64, i64, ptr, ...) @H5E_printf_stack(ptr noundef nonnull @.str.3, ptr noundef nonnull @__func__.H5FA__cache_dblock_notify, i32 noundef 850, i64 noundef %39, i64 noundef %40, ptr noundef nonnull @.str.26) #6
  br label %47

42:                                               ; preds = %35
  store ptr null, ptr %33, align 8, !tbaa !70
  br label %47

43:                                               ; preds = %15
  %44 = load i64, ptr @H5E_FARRAY_g, align 8, !tbaa !15
  %45 = load i64, ptr @H5E_BADVALUE_g, align 8, !tbaa !15
  %46 = tail call i32 (ptr, ptr, i32, i64, i64, ptr, ...) @H5E_printf_stack(ptr noundef nonnull @.str.3, ptr noundef nonnull @__func__.H5FA__cache_dblock_notify, i32 noundef 857, i64 noundef %44, i64 noundef %45, ptr noundef nonnull @.str.14) #6
  br label %47

47:                                               ; preds = %19, %28, %38, %43, %16, %15, %15, %15, %15, %15, %15, %15, %42, %32, %9, %2
  %.0 = phi i32 [ -1, %43 ], [ -1, %28 ], [ -1, %38 ], [ 0, %42 ], [ 0, %32 ], [ 0, %15 ], [ 0, %15 ], [ 0, %15 ], [ 0, %15 ], [ 0, %15 ], [ 0, %15 ], [ 0, %15 ], [ -1, %19 ], [ 0, %16 ], [ 0, %9 ], [ 0, %2 ]
  ret i32 %.0
}